#include <math.h>
#include <stdio.h>
#include <stdlib.h>
#include <string.h>



int main(int argc, char* argv[])
{
	int i,j,n,a[100001],x=0,k=1;
	scanf("%d",&n);
	for(i=2;i<=n;i++){
		x=0;
		for(j=2;j<=i-1;j++){
			if(i%j==0){
				x=1;
			}
		}
		if(x==0){
			a[k]=i;
			k++;
		}
	}
	x=0;
	for(i=1;i<=k-2;i++){
		if(a[i+1]==a[i]+2){
			printf("%d %d\n",a[i],a[i+1]);
			x=1;
		}
	}
	if(x==0){
		printf("empty");
	}
	return 0;
}
